#include <math.h>
#include <stdio.h>
#include <stdlib.h>
#include <string.h>

int main()
{
	int i,n,ge,shi,bai,qian,wan,place=1,j=2;
	scanf("%d",&n);
	for(i=9;i<=10000;i=i*10+9){
		if(n>i) place=j;
                j=j+1;
	}
		wan=n/10000;
        qian=(n-wan*10000)/1000;
        bai=(n-wan*10000-qian*1000)/100;
        shi=(n-wan*10000-qian*1000-bai*100)/10;
        ge=n-wan*10000-qian*1000-bai*100-shi*10;
	switch(place){
	case 5:
		printf("%d%d%d%d%d",ge,shi,bai,qian,wan);
		break;
	case 4:
        printf("%d%d%d%d",ge,shi,bai,qian);
		break;
	case 3:
        printf("%d%d%d",ge,shi,bai);
		break;
	case 2:
        printf("%d%d",ge,shi);
		break;
	case 1:
		printf("%d",n);
		break;
    default:
		printf("error");
	}
	return 0;
}