; ModuleID = '16/683.c'
source_filename = "16/683.c"
target datalayout = "e-m:e-p270:32:32-p271:32:32-p272:64:64-i64:64-f80:128-n8:16:32:64-S128"
target triple = "x86_64-pc-linux-gnu"

@.str = private unnamed_addr constant [3 x i8] c"%d\00", align 1
@.str.1 = private unnamed_addr constant [11 x i8] c"%d%d%d%d%d\00", align 1
@.str.2 = private unnamed_addr constant [9 x i8] c"%d%d%d%d\00", align 1
@.str.3 = private unnamed_addr constant [7 x i8] c"%d%d%d\00", align 1
@.str.4 = private unnamed_addr constant [5 x i8] c"%d%d\00", align 1
@.str.5 = private unnamed_addr constant [6 x i8] c"error\00", align 1

; Function Attrs: noinline nounwind uwtable
define dso_local i32 @main() #0 {
  %1 = alloca i32, align 4
  %2 = alloca i32, align 4
  %3 = alloca i32, align 4
  %4 = alloca i32, align 4
  %5 = alloca i32, align 4
  %6 = alloca i32, align 4
  %7 = alloca i32, align 4
  %8 = alloca i32, align 4
  %9 = alloca i32, align 4
  %10 = alloca i32, align 4
  store i32 0, i32* %1, align 4
  store i32 1, i32* %9, align 4
  store i32 2, i32* %10, align 4
  %11 = call i32 (i8*, ...) @__isoc99_scanf(i8* getelementptr inbounds ([3 x i8], [3 x i8]* @.str, i64 0, i64 0), i32* %3)
  store i32 9, i32* %2, align 4
  br label %12

12:                                               ; preds = %24, %0
  %13 = load i32, i32* %2, align 4
  %14 = icmp sle i32 %13, 10000
  br i1 %14, label %15, label %28

15:                                               ; preds = %12
  %16 = load i32, i32* %3, align 4
  %17 = load i32, i32* %2, align 4
  %18 = icmp sgt i32 %16, %17
  br i1 %18, label %19, label %21

19:                                               ; preds = %15
  %20 = load i32, i32* %10, align 4
  store i32 %20, i32* %9, align 4
  br label %21

21:                                               ; preds = %19, %15
  %22 = load i32, i32* %10, align 4
  %23 = add nsw i32 %22, 1
  store i32 %23, i32* %10, align 4
  br label %24

24:                                               ; preds = %21
  %25 = load i32, i32* %2, align 4
  %26 = mul nsw i32 %25, 10
  %27 = add nsw i32 %26, 9
  store i32 %27, i32* %2, align 4
  br label %12

28:                                               ; preds = %12
  %29 = load i32, i32* %3, align 4
  %30 = sdiv i32 %29, 10000
  store i32 %30, i32* %8, align 4
  %31 = load i32, i32* %3, align 4
  %32 = load i32, i32* %8, align 4
  %33 = mul nsw i32 %32, 10000
  %34 = sub nsw i32 %31, %33
  %35 = sdiv i32 %34, 1000
  store i32 %35, i32* %7, align 4
  %36 = load i32, i32* %3, align 4
  %37 = load i32, i32* %8, align 4
  %38 = mul nsw i32 %37, 10000
  %39 = sub nsw i32 %36, %38
  %40 = load i32, i32* %7, align 4
  %41 = mul nsw i32 %40, 1000
  %42 = sub nsw i32 %39, %41
  %43 = sdiv i32 %42, 100
  store i32 %43, i32* %6, align 4
  %44 = load i32, i32* %3, align 4
  %45 = load i32, i32* %8, align 4
  %46 = mul nsw i32 %45, 10000
  %47 = sub nsw i32 %44, %46
  %48 = load i32, i32* %7, align 4
  %49 = mul nsw i32 %48, 1000
  %50 = sub nsw i32 %47, %49
  %51 = load i32, i32* %6, align 4
  %52 = mul nsw i32 %51, 100
  %53 = sub nsw i32 %50, %52
  %54 = sdiv i32 %53, 10
  store i32 %54, i32* %5, align 4
  %55 = load i32, i32* %3, align 4
  %56 = load i32, i32* %8, align 4
  %57 = mul nsw i32 %56, 10000
  %58 = sub nsw i32 %55, %57
  %59 = load i32, i32* %7, align 4
  %60 = mul nsw i32 %59, 1000
  %61 = sub nsw i32 %58, %60
  %62 = load i32, i32* %6, align 4
  %63 = mul nsw i32 %62, 100
  %64 = sub nsw i32 %61, %63
  %65 = load i32, i32* %5, align 4
  %66 = mul nsw i32 %65, 10
  %67 = sub nsw i32 %64, %66
  store i32 %67, i32* %4, align 4
  %68 = load i32, i32* %9, align 4
  switch i32 %68, label %94 [
    i32 5, label %69
    i32 4, label %76
    i32 3, label %82
    i32 2, label %87
    i32 1, label %91
  ]

69:                                               ; preds = %28
  %70 = load i32, i32* %4, align 4
  %71 = load i32, i32* %5, align 4
  %72 = load i32, i32* %6, align 4
  %73 = load i32, i32* %7, align 4
  %74 = load i32, i32* %8, align 4
  %75 = call i32 (i8*, ...) @printf(i8* getelementptr inbounds ([11 x i8], [11 x i8]* @.str.1, i64 0, i64 0), i32 %70, i32 %71, i32 %72, i32 %73, i32 %74)
  br label %96

76:                                               ; preds = %28
  %77 = load i32, i32* %4, align 4
  %78 = load i32, i32* %5, align 4
  %79 = load i32, i32* %6, align 4
  %80 = load i32, i32* %7, align 4
  %81 = call i32 (i8*, ...) @printf(i8* getelementptr inbounds ([9 x i8], [9 x i8]* @.str.2, i64 0, i64 0), i32 %77, i32 %78, i32 %79, i32 %80)
  br label %96

82:                                               ; preds = %28
  %83 = load i32, i32* %4, align 4
  %84 = load i32, i32* %5, align 4
  %85 = load i32, i32* %6, align 4
  %86 = call i32 (i8*, ...) @printf(i8* getelementptr inbounds ([7 x i8], [7 x i8]* @.str.3, i64 0, i64 0), i32 %83, i32 %84, i32 %85)
  br label %96

87:                                               ; preds = %28
  %88 = load i32, i32* %4, align 4
  %89 = load i32, i32* %5, align 4
  %90 = call i32 (i8*, ...) @printf(i8* getelementptr inbounds ([5 x i8], [5 x i8]* @.str.4, i64 0, i64 0), i32 %88, i32 %89)
  br label %96

91:                                               ; preds = %28
  %92 = load i32, i32* %3, align 4
  %93 = call i32 (i8*, ...) @printf(i8* getelementptr inbounds ([3 x i8], [3 x i8]* @.str, i64 0, i64 0), i32 %92)
  br label %96

94:                                               ; preds = %28
  %95 = call i32 (i8*, ...) @printf(i8* getelementptr inbounds ([6 x i8], [6 x i8]* @.str.5, i64 0, i64 0))
  br label %96

96:                                               ; preds = %94, %91, %87, %82, %76, %69
  ret i32 0
}

declare dso_local i32 @__isoc99_scanf(i8*, ...) #1

declare dso_local i32 @printf(i8*, ...) #1


!llvm.module.flags = !{!0}
!llvm.ident = !{!1}

!0 = !{i32 1, !"wchar_size", i32 4}
!1 = !{!"clang version 10.0.0-4ubuntu1 "}
